target datalayout = "e-m:e-p270:32:32-p271:32:32-p272:64:64-i64:64-i128:128-f80:128-n8:16:32:64-S128"
target triple = "x86_64-unknown-linux-gnu"

@progress_printed = dso_local global i64 0, align 8
@progress_full = dso_local global i64 0, align 8
@stdout = external global ptr, align 8
@.str.6 = private unnamed_addr constant [3 x i8] c"%c\00", align 1
@.str.8 = private unnamed_addr constant [20 x i8] c"(bytes & 4095) == 0\00", align 1
@.str.9 = private unnamed_addr constant [10 x i8] c"memtest.c\00", align 1

; Function Attrs: nounwind uwtable
define dso_local void @memtest_progress_step(i64 noundef %curr, i64 noundef %size, i8 noundef signext %c) #0 {
entry:
  %curr.addr = alloca i64, align 8
  %size.addr = alloca i64, align 8
  %c.addr = alloca i8, align 1
  %chars = alloca i64, align 8
  %j = alloca i64, align 8
  store i64 %curr, ptr %curr.addr, align 8
  store i64 %size, ptr %size.addr, align 8
  store i8 %c, ptr %c.addr, align 1
  %0 = load i64, ptr %curr.addr, align 8
  %1 = load i64, ptr @progress_full, align 8
  %mul = mul i64 %0, %1
  %2 = load i64, ptr %size.addr, align 8
  %div = udiv i64 %mul, %2
  store i64 %div, ptr %chars, align 8
  store i64 0, ptr %j, align 8
  br label %for.cond

for.cond:                                         ; preds = %for.inc, %entry
  %3 = load i64, ptr %j, align 8
  %4 = load i64, ptr %chars, align 8
  %5 = load i64, ptr @progress_printed, align 8
  %sub = sub i64 %4, %5
  %cmp = icmp ult i64 %3, %sub
  br i1 %cmp, label %for.body, label %for.end

for.body:                                         ; preds = %for.cond
  %6 = load i8, ptr %c.addr, align 1
  %conv = sext i8 %6 to i32
  %call = call i32 (ptr, ...) @printf(ptr noundef @.str.6, i32 noundef %conv)
  br label %for.inc

for.inc:                                          ; preds = %for.body
  %7 = load i64, ptr %j, align 8
  %inc = add i64 %7, 1
  store i64 %inc, ptr %j, align 8
  br label %for.cond, !llvm.loop !7

for.end:                                          ; preds = %for.cond
  %8 = load i64, ptr %chars, align 8
  store i64 %8, ptr @progress_printed, align 8
  %9 = load ptr, ptr @stdout, align 8
  %call1 = call i32 @fflush(ptr noundef %9)
  ret void
}

; Function Attrs: nounwind uwtable
define dso_local void @memtest_fill_value(ptr noundef %l, i64 noundef %bytes, i64 noundef %v1, i64 noundef %v2, i8 noundef signext %sym, i32 noundef %interactive) #0 {
entry:
  %l.addr = alloca ptr, align 8
  %bytes.addr = alloca i64, align 8
  %v1.addr = alloca i64, align 8
  %v2.addr = alloca i64, align 8
  %sym.addr = alloca i8, align 1
  %interactive.addr = alloca i32, align 4
  %step = alloca i64, align 8
  %words = alloca i64, align 8
  %iwords = alloca i64, align 8
  %off = alloca i64, align 8
  %w = alloca i64, align 8
  %l1 = alloca ptr, align 8
  %l2 = alloca ptr, align 8
  %v = alloca i64, align 8
  store ptr %l, ptr %l.addr, align 8
  store i64 %bytes, ptr %bytes.addr, align 8
  store i64 %v1, ptr %v1.addr, align 8
  store i64 %v2, ptr %v2.addr, align 8
  store i8 %sym, ptr %sym.addr, align 1
  store i32 %interactive, ptr %interactive.addr, align 4
  store i64 512, ptr %step, align 8
  %0 = load i64, ptr %bytes.addr, align 8
  %div = udiv i64 %0, 8
  %div1 = udiv i64 %div, 2
  store i64 %div1, ptr %words, align 8
  %1 = load i64, ptr %words, align 8
  %2 = load i64, ptr %step, align 8
  %div2 = udiv i64 %1, %2
  store i64 %div2, ptr %iwords, align 8
  %3 = load i64, ptr %bytes.addr, align 8
  %and = and i64 %3, 4095
  %cmp = icmp eq i64 %and, 0
  %lnot = xor i1 %cmp, true
  %lnot3 = xor i1 %lnot, true
  %lnot.ext = zext i1 %lnot3 to i32
  %conv = sext i32 %lnot.ext to i64
  %tobool = icmp ne i64 %conv, 0
  br i1 %tobool, label %cond.true, label %cond.false

cond.true:                                        ; preds = %entry
  br label %cond.end

cond.false:                                       ; preds = %entry
  call void @_serverAssert(ptr noundef @.str.8, ptr noundef @.str.9, i32 noundef 181)
  call void @abort() #7
  unreachable

4:                                                ; No predecessors!
  br label %cond.end

cond.end:                                         ; preds = %4, %cond.true
  store i64 0, ptr %off, align 8
  br label %for.cond

for.cond:                                         ; preds = %for.inc26, %cond.end
  %5 = load i64, ptr %off, align 8
  %6 = load i64, ptr %step, align 8
  %cmp4 = icmp ult i64 %5, %6
  br i1 %cmp4, label %for.body, label %for.end28

for.body:                                         ; preds = %for.cond
  %7 = load ptr, ptr %l.addr, align 8
  %8 = load i64, ptr %off, align 8
  %add.ptr = getelementptr inbounds i64, ptr %7, i64 %8
  store ptr %add.ptr, ptr %l1, align 8
  %9 = load ptr, ptr %l1, align 8
  %10 = load i64, ptr %words, align 8
  %add.ptr6 = getelementptr inbounds i64, ptr %9, i64 %10
  store ptr %add.ptr6, ptr %l2, align 8
  %11 = load i64, ptr %off, align 8
  %and7 = and i64 %11, 1
  %tobool8 = icmp ne i64 %and7, 0
  br i1 %tobool8, label %cond.true9, label %cond.false10

cond.true9:                                       ; preds = %for.body
  %12 = load i64, ptr %v2.addr, align 8
  br label %cond.end11

cond.false10:                                     ; preds = %for.body
  %13 = load i64, ptr %v1.addr, align 8
  br label %cond.end11

cond.end11:                                       ; preds = %cond.false10, %cond.true9
  %cond = phi i64 [ %12, %cond.true9 ], [ %13, %cond.false10 ]
  store i64 %cond, ptr %v, align 8
  store i64 0, ptr %w, align 8
  br label %for.cond12

for.cond12:                                       ; preds = %for.inc, %cond.end11
  %14 = load i64, ptr %w, align 8
  %15 = load i64, ptr %iwords, align 8
  %cmp13 = icmp ult i64 %14, %15
  br i1 %cmp13, label %for.body15, label %for.end

for.body15:                                       ; preds = %for.cond12
  %16 = load i64, ptr %v, align 8
  %17 = load i64, ptr %v, align 8
  %shl = shl i64 %17, 16
  %or = or i64 %16, %shl
  %18 = load i64, ptr %v, align 8
  %shl16 = shl i64 %18, 32
  %or17 = or i64 %or, %shl16
  %19 = load i64, ptr %v, align 8
  %shl18 = shl i64 %19, 48
  %or19 = or i64 %or17, %shl18
  %20 = load ptr, ptr %l2, align 8
  store i64 %or19, ptr %20, align 8
  %21 = load ptr, ptr %l1, align 8
  store i64 %or19, ptr %21, align 8
  %22 = load i64, ptr %step, align 8
  %23 = load ptr, ptr %l1, align 8
  %add.ptr20 = getelementptr inbounds i64, ptr %23, i64 %22
  store ptr %add.ptr20, ptr %l1, align 8
  %24 = load i64, ptr %step, align 8
  %25 = load ptr, ptr %l2, align 8
  %add.ptr21 = getelementptr inbounds i64, ptr %25, i64 %24
  store ptr %add.ptr21, ptr %l2, align 8
  %26 = load i64, ptr %w, align 8
  %and22 = and i64 %26, 65535
  %cmp23 = icmp eq i64 %and22, 0
  br i1 %cmp23, label %land.lhs.true, label %if.end

land.lhs.true:                                    ; preds = %for.body15
  %27 = load i32, ptr %interactive.addr, align 4
  %tobool25 = icmp ne i32 %27, 0
  br i1 %tobool25, label %if.then, label %if.end

if.then:                                          ; preds = %land.lhs.true
  %28 = load i64, ptr %w, align 8
  %29 = load i64, ptr %iwords, align 8
  %30 = load i64, ptr %off, align 8
  %mul = mul i64 %29, %30
  %add = add i64 %28, %mul
  %31 = load i64, ptr %words, align 8
  %32 = load i8, ptr %sym.addr, align 1
  call void @memtest_progress_step(i64 noundef %add, i64 noundef %31, i8 noundef signext %32)
  br label %if.end

if.end:                                           ; preds = %if.then, %land.lhs.true, %for.body15
  br label %for.inc

for.inc:                                          ; preds = %if.end
  %33 = load i64, ptr %w, align 8
  %inc = add i64 %33, 1
  store i64 %inc, ptr %w, align 8
  br label %for.cond12, !llvm.loop !12

for.end:                                          ; preds = %for.cond12
  br label %for.inc26

for.inc26:                                        ; preds = %for.end
  %34 = load i64, ptr %off, align 8
  %inc27 = add i64 %34, 1
  store i64 %inc27, ptr %off, align 8
  br label %for.cond, !llvm.loop !13

for.end28:                                        ; preds = %for.cond
  ret void
}