; Function Attrs: nounwind uwtable
define dso_local void @memtest_fill_value(ptr nocapture noundef writeonly %l, i64 noundef %bytes, i64 noundef %v1, i64 noundef %v2, i8 noundef signext %sym, i32 noundef %interactive) local_unnamed_addr #2 {
entry:
  %div122 = lshr i64 %bytes, 4
  %div223 = lshr i64 %bytes, 13
  %and = and i64 %bytes, 4095
  %cmp = icmp eq i64 %and, 0
  br i1 %cmp, label %for.cond.preheader, label %cond.false

for.cond.preheader:                               ; preds = %entry
  %cmp1324.not = icmp ult i64 %bytes, 8192
  %conv.i = sext i8 %sym to i32
  br i1 %cmp1324.not, label %for.end28, label %for.cond.preheader.split.us

for.cond.preheader.split.us:                      ; preds = %for.cond.preheader
  %tobool25.not = icmp eq i32 %interactive, 0
  br i1 %tobool25.not, label %for.body.us, label %for.body.us.us

for.body.us.us:                                   ; preds = %for.cond.preheader.split.us, %for.cond12.for.inc26_crit_edge.split.us37.us
  %off.028.us.us = phi i64 [ %inc27.us.us, %for.cond12.for.inc26_crit_edge.split.us37.us ], [ 0, %for.cond.preheader.split.us ]
  %add.ptr.us.us = getelementptr inbounds i64, ptr %l, i64 %off.028.us.us
  %add.ptr6.us.us = getelementptr inbounds i64, ptr %add.ptr.us.us, i64 %div122
  %and7.us.us = and i64 %off.028.us.us, 1
  %tobool8.not.us.us = icmp eq i64 %and7.us.us, 0
  %cond.us.us = select i1 %tobool8.not.us.us, i64 %v1, i64 %v2
  %shl.us.us = shl i64 %cond.us.us, 16
  %shl16.us.us = shl i64 %cond.us.us, 32
  %shl18.us.us = shl i64 %cond.us.us, 48
  %0 = or i64 %shl16.us.us, %shl.us.us
  %1 = or i64 %0, %shl18.us.us
  %or19.us.us = or i64 %1, %cond.us.us
  %mul.us.us = mul nuw nsw i64 %off.028.us.us, %div223
  br label %for.body15.us29.us

for.body15.us29.us:                               ; preds = %for.body.us.us, %for.inc.us.us
  %l2.027.us30.us = phi ptr [ %add.ptr6.us.us, %for.body.us.us ], [ %add.ptr21.us34.us, %for.inc.us.us ]
  %l1.026.us31.us = phi ptr [ %add.ptr.us.us, %for.body.us.us ], [ %add.ptr20.us33.us, %for.inc.us.us ]
  %w.025.us32.us = phi i64 [ 0, %for.body.us.us ], [ %inc.us35.us, %for.inc.us.us ]
  store i64 %or19.us.us, ptr %l2.027.us30.us, align 8
  store i64 %or19.us.us, ptr %l1.026.us31.us, align 8
  %add.ptr20.us33.us = getelementptr inbounds i8, ptr %l1.026.us31.us, i64 4096
  %add.ptr21.us34.us = getelementptr inbounds i8, ptr %l2.027.us30.us, i64 4096
  %and22.us.us = and i64 %w.025.us32.us, 65535
  %cmp23.us.us = icmp eq i64 %and22.us.us, 0
  br i1 %cmp23.us.us, label %if.then.us.us, label %for.inc.us.us

if.then.us.us:                                    ; preds = %for.body15.us29.us
  %add.us.us = add nuw nsw i64 %w.025.us32.us, %mul.us.us
  %2 = load i64, ptr @progress_full, align 8
  %mul.i.us.us = mul i64 %2, %add.us.us
  %div.i.us.us = udiv i64 %mul.i.us.us, %div122
  %3 = load i64, ptr @progress_printed, align 8
  %cmp4.not.i.us.us = icmp eq i64 %div.i.us.us, %3
  br i1 %cmp4.not.i.us.us, label %memtest_progress_step.exit.us.us, label %for.body.i.us.us

for.body.i.us.us:                                 ; preds = %if.then.us.us, %for.body.i.us.us
  %j.05.i.us.us = phi i64 [ %inc.i.us.us, %for.body.i.us.us ], [ 0, %if.then.us.us ]
  %putchar.i.us.us = tail call i32 @putchar(i32 %conv.i)
  %inc.i.us.us = add nuw i64 %j.05.i.us.us, 1
  %4 = load i64, ptr @progress_printed, align 8
  %sub.i.us.us = sub i64 %div.i.us.us, %4
  %cmp.i.us.us = icmp ult i64 %inc.i.us.us, %sub.i.us.us
  br i1 %cmp.i.us.us, label %for.body.i.us.us, label %memtest_progress_step.exit.us.us, !llvm.loop !7

memtest_progress_step.exit.us.us:                 ; preds = %for.body.i.us.us, %if.then.us.us
  store i64 %div.i.us.us, ptr @progress_printed, align 8
  %5 = load ptr, ptr @stdout, align 8
  %call1.i.us.us = tail call i32 @fflush(ptr noundef %5)
  br label %for.inc.us.us

for.inc.us.us:                                    ; preds = %memtest_progress_step.exit.us.us, %for.body15.us29.us
  %inc.us35.us = add nuw nsw i64 %w.025.us32.us, 1
  %exitcond.not = icmp eq i64 %inc.us35.us, %div223
  br i1 %exitcond.not, label %for.cond12.for.inc26_crit_edge.split.us37.us, label %for.body15.us29.us, !llvm.loop !12

for.cond12.for.inc26_crit_edge.split.us37.us:     ; preds = %for.inc.us.us
  %inc27.us.us = add nuw nsw i64 %off.028.us.us, 1
  %exitcond41.not = icmp eq i64 %inc27.us.us, 512
  br i1 %exitcond41.not, label %for.end28, label %for.body.us.us, !llvm.loop !13

for.body.us:                                      ; preds = %for.cond.preheader.split.us, %for.cond12.for.inc26_crit_edge.split.us.us
  %off.028.us = phi i64 [ %inc27.us, %for.cond12.for.inc26_crit_edge.split.us.us ], [ 0, %for.cond.preheader.split.us ]
  %add.ptr.us = getelementptr inbounds i64, ptr %l, i64 %off.028.us
  %add.ptr6.us = getelementptr inbounds i64, ptr %add.ptr.us, i64 %div122
  %and7.us = and i64 %off.028.us, 1
  %tobool8.not.us = icmp eq i64 %and7.us, 0
  %cond.us = select i1 %tobool8.not.us, i64 %v1, i64 %v2
  %shl.us = shl i64 %cond.us, 16
  %shl16.us = shl i64 %cond.us, 32
  %shl18.us = shl i64 %cond.us, 48
  %6 = or i64 %shl16.us, %shl.us
  %7 = or i64 %6, %shl18.us
  %or19.us = or i64 %7, %cond.us
  br label %for.body15.us.us

for.body15.us.us:                                 ; preds = %for.body15.us.us, %for.body.us
  %l2.027.us.us = phi ptr [ %add.ptr6.us, %for.body.us ], [ %add.ptr21.us.us, %for.body15.us.us ]
  %l1.026.us.us = phi ptr [ %add.ptr.us, %for.body.us ], [ %add.ptr20.us.us, %for.body15.us.us ]
  %w.025.us.us = phi i64 [ 0, %for.body.us ], [ %inc.us.us, %for.body15.us.us ]
  store i64 %or19.us, ptr %l2.027.us.us, align 8
  store i64 %or19.us, ptr %l1.026.us.us, align 8
  %add.ptr20.us.us = getelementptr inbounds i8, ptr %l1.026.us.us, i64 4096
  %add.ptr21.us.us = getelementptr inbounds i8, ptr %l2.027.us.us, i64 4096
  %inc.us.us = add nuw nsw i64 %w.025.us.us, 1
  %exitcond42.not = icmp eq i64 %inc.us.us, %div223
  br i1 %exitcond42.not, label %for.cond12.for.inc26_crit_edge.split.us.us, label %for.body15.us.us, !llvm.loop !12

for.cond12.for.inc26_crit_edge.split.us.us:       ; preds = %for.body15.us.us
  %inc27.us = add nuw nsw i64 %off.028.us, 1
  %exitcond43.not = icmp eq i64 %inc27.us, 512
  br i1 %exitcond43.not, label %for.end28, label %for.body.us, !llvm.loop !13

cond.false:                                       ; preds = %entry
  tail call void @_serverAssert(ptr noundef nonnull @.str.8, ptr noundef nonnull @.str.9, i32 noundef 181) #14
  tail call void @abort() #13
  unreachable

for.end28:                                        ; preds = %for.cond12.for.inc26_crit_edge.split.us37.us, %for.cond12.for.inc26_crit_edge.split.us.us, %for.cond.preheader
  ret void
}